target datalayout = "e-m:e-p270:32:32-p271:32:32-p272:64:64-i64:64-i128:128-f80:128-n8:16:32:64-S128"
target triple = "x86_64-pc-linux-gnu"

%struct.nameData = type { [64 x i8] }
%struct.pg_locale_struct = type { i8, i8, i8, i8, i8, ptr, %union.anon.10 }
%union.anon.10 = type { %struct.anon }
%struct.anon = type { ptr, i8 }

; Function Attrs: inlinehint nounwind uwtable
define internal ptr @DatumGetPointer(i64 noundef %0) #1 {
  %2 = alloca i64, align 8
  store i64 %0, ptr %2, align 8
  %3 = load i64, ptr %2, align 8
  %4 = inttoptr i64 %3 to ptr
  ret ptr %4
}

; Function Attrs: inlinehint nounwind uwtable
define internal signext i8 @DatumGetChar(i64 noundef %0) #1 {
  %2 = alloca i64, align 8
  store i64 %0, ptr %2, align 8
  %3 = load i64, ptr %2, align 8
  %4 = trunc i64 %3 to i8
  ret i8 %4
}

; Function Attrs: nounwind uwtable
define internal ptr @convert_string_datum(i64 noundef %0, i32 noundef %1, i32 noundef %2, ptr noundef %3) #0 {
  %5 = alloca ptr, align 8
  %6 = alloca i64, align 8
  %7 = alloca i32, align 4
  %8 = alloca i32, align 4
  %9 = alloca ptr, align 8
  %10 = alloca ptr, align 8
  %11 = alloca ptr, align 8
  %12 = alloca ptr, align 8
  %13 = alloca i32, align 4
  %14 = alloca ptr, align 8
  %15 = alloca i64, align 8
  %16 = alloca i64, align 8
  store i64 %0, ptr %6, align 8
  store i32 %1, ptr %7, align 4
  store i32 %2, ptr %8, align 4
  store ptr %3, ptr %9, align 8
  call void @llvm.lifetime.start.p0(i64 8, ptr %10) #10
  call void @llvm.lifetime.start.p0(i64 8, ptr %11) #10
  %17 = load i32, ptr %7, align 4
  switch i32 %17, label %37 [
    i32 18, label %18
    i32 1042, label %26
    i32 1043, label %26
    i32 25, label %26
    i32 19, label %30
  ]

18:                                               ; preds = %4
  %19 = call ptr @palloc(i64 noundef 2)
  store ptr %19, ptr %10, align 8
  %20 = load i64, ptr %6, align 8
  %21 = call signext i8 @DatumGetChar(i64 noundef %20)
  %22 = load ptr, ptr %10, align 8
  %23 = getelementptr inbounds i8, ptr %22, i64 0
  store i8 %21, ptr %23, align 1
  %24 = load ptr, ptr %10, align 8
  %25 = getelementptr inbounds i8, ptr %24, i64 1
  store i8 0, ptr %25, align 1
  br label %39

26:                                               ; preds = %4, %4, %4
  %27 = load i64, ptr %6, align 8
  %28 = call ptr @DatumGetPointer(i64 noundef %27)
  %29 = call ptr @text_to_cstring(ptr noundef %28)
  store ptr %29, ptr %10, align 8
  br label %39

30:                                               ; preds = %4
  call void @llvm.lifetime.start.p0(i64 8, ptr %12) #10
  %31 = load i64, ptr %6, align 8
  %32 = call ptr @DatumGetPointer(i64 noundef %31)
  store ptr %32, ptr %12, align 8
  %33 = load ptr, ptr %12, align 8
  %34 = getelementptr inbounds nuw %struct.nameData, ptr %33, i32 0, i32 0
  %35 = getelementptr inbounds [64 x i8], ptr %34, i64 0, i64 0
  %36 = call ptr @pstrdup(ptr noundef %35)
  store ptr %36, ptr %10, align 8
  call void @llvm.lifetime.end.p0(i64 8, ptr %12) #10
  br label %39

37:                                               ; preds = %4
  %38 = load ptr, ptr %9, align 8
  store i8 1, ptr %38, align 1
  store ptr null, ptr %5, align 8
  store i32 1, ptr %13, align 4
  br label %63

39:                                               ; preds = %30, %26, %18
  %40 = load i32, ptr %8, align 4
  %41 = call ptr @pg_newlocale_from_collation(i32 noundef %40)
  store ptr %41, ptr %11, align 8
  %42 = load ptr, ptr %11, align 8
  %43 = getelementptr inbounds nuw %struct.pg_locale_struct, ptr %42, i32 0, i32 2
  %44 = load i8, ptr %43, align 2, !range !4, !noundef !5
  %45 = trunc i8 %44 to i1
  br i1 %45, label %61, label %46

46:                                               ; preds = %39
  call void @llvm.lifetime.start.p0(i64 8, ptr %14) #10
  call void @llvm.lifetime.start.p0(i64 8, ptr %15) #10
  call void @llvm.lifetime.start.p0(i64 8, ptr %16) #10
  %47 = load ptr, ptr %10, align 8
  %48 = load ptr, ptr %11, align 8
  %49 = call i64 @pg_strxfrm(ptr noundef null, ptr noundef %47, i64 noundef 0, ptr noundef %48)
  store i64 %49, ptr %15, align 8
  %50 = load i64, ptr %15, align 8
  %51 = add i64 %50, 1
  %52 = call ptr @palloc(i64 noundef %51)
  store ptr %52, ptr %14, align 8
  %53 = load ptr, ptr %14, align 8
  %54 = load ptr, ptr %10, align 8
  %55 = load i64, ptr %15, align 8
  %56 = add i64 %55, 1
  %57 = load ptr, ptr %11, align 8
  %58 = call i64 @pg_strxfrm(ptr noundef %53, ptr noundef %54, i64 noundef %56, ptr noundef %57)
  store i64 %58, ptr %16, align 8
  %59 = load ptr, ptr %10, align 8
  call void @pfree(ptr noundef %59)
  %60 = load ptr, ptr %14, align 8
  store ptr %60, ptr %10, align 8
  call void @llvm.lifetime.end.p0(i64 8, ptr %16) #10
  call void @llvm.lifetime.end.p0(i64 8, ptr %15) #10
  call void @llvm.lifetime.end.p0(i64 8, ptr %14) #10
  br label %61

61:                                               ; preds = %46, %39
  %62 = load ptr, ptr %10, align 8
  store ptr %62, ptr %5, align 8
  store i32 1, ptr %13, align 4
  br label %63

63:                                               ; preds = %61, %37
  call void @llvm.lifetime.end.p0(i64 8, ptr %11) #10
  call void @llvm.lifetime.end.p0(i64 8, ptr %10) #10
  %64 = load ptr, ptr %5, align 8
  ret ptr %64
}