; Function Attrs: nounwind uwtable
define internal fastcc ptr @convert_string_datum(i64 noundef %0, i32 noundef %1, i32 noundef %2, ptr noundef nonnull writeonly captures(none) %3) unnamed_addr #0 {
  switch i32 %1, label %15 [
    i32 18, label %5
    i32 1042, label %9
    i32 1043, label %9
    i32 25, label %9
    i32 19, label %12
  ]

5:                                                ; preds = %4
  %6 = tail call ptr @palloc(i64 noundef 2) #12
  %7 = trunc i64 %0 to i8
  store i8 %7, ptr %6, align 1
  %8 = getelementptr inbounds nuw i8, ptr %6, i64 1
  store i8 0, ptr %8, align 1
  br label %16

9:                                                ; preds = %4, %4, %4
  %10 = inttoptr i64 %0 to ptr
  %11 = tail call ptr @text_to_cstring(ptr noundef %10) #12
  br label %16

12:                                               ; preds = %4
  %13 = inttoptr i64 %0 to ptr
  %14 = tail call ptr @pstrdup(ptr noundef %13) #12
  br label %16

15:                                               ; preds = %4
  store i8 1, ptr %3, align 1
  br label %26

16:                                               ; preds = %12, %9, %5
  %.020 = phi ptr [ %14, %12 ], [ %11, %9 ], [ %6, %5 ]
  %17 = tail call ptr @pg_newlocale_from_collation(i32 noundef %2) #12
  %18 = getelementptr inbounds nuw i8, ptr %17, i64 2
  %19 = load i8, ptr %18, align 2, !range !4, !noundef !5
  %20 = trunc nuw i8 %19 to i1
  br i1 %20, label %26, label %21

21:                                               ; preds = %16
  %22 = tail call i64 @pg_strxfrm(ptr noundef null, ptr noundef %.020, i64 noundef 0, ptr noundef nonnull %17) #12
  %23 = add i64 %22, 1
  %24 = tail call ptr @palloc(i64 noundef %23) #12
  %25 = tail call i64 @pg_strxfrm(ptr noundef %24, ptr noundef %.020, i64 noundef %23, ptr noundef nonnull %17) #12
  tail call void @pfree(ptr noundef %.020) #12
  br label %26

26:                                               ; preds = %16, %21, %15
  %.0 = phi ptr [ null, %15 ], [ %.020, %16 ], [ %24, %21 ]
  ret ptr %.0
}